target datalayout = "e-m:e-p270:32:32-p271:32:32-p272:64:64-i64:64-i128:128-f80:128-n8:16:32:64-S128"
target triple = "x86_64-pc-linux-gnu"

%struct.CVodeMemRec = type { ptr, double, ptr, ptr, i32, i32, double, double, ptr, i32, i32, ptr, ptr, i32, i32, ptr, i32, i32, double, double, ptr, i32, i32, i32, i32, ptr, ptr, ptr, i32, i32, ptr, ptr, ptr, i32, double, i32, i32, double, ptr, ptr, ptr, i32, ptr, ptr, i32, i32, i32, double, ptr, ptr, ptr, [13 x ptr], ptr, ptr, ptr, ptr, ptr, ptr, ptr, ptr, ptr, [13 x ptr], ptr, ptr, ptr, ptr, [13 x ptr], ptr, ptr, ptr, ptr, ptr, i32, [13 x ptr], ptr, ptr, ptr, ptr, ptr, i32, i32, double, i32, i32, i32, i32, i32, double, double, double, double, double, double, double, double, [14 x double], [6 x double], [13 x double], double, double, double, double, double, double, double, double, i32, double, double, i32, double, double, ptr, i32, i64, i32, i32, i32, double, double, double, double, double, double, double, double, double, double, double, double, i64, i32, i64, i64, i64, i64, i64, i64, i64, i64, i64, ptr, i64, i64, ptr, i64, i64, ptr, i64, i64, i64, i64, i64, i64, i32, double, double, double, i64, i64, i64, i64, i64, i64, ptr, i32, ptr, i32, ptr, i32, ptr, i32, i32, i64, i32, ptr, i32, ptr, ptr, ptr, ptr, ptr, ptr, i32, i32, ptr, ptr, ptr, ptr, ptr, i64, double, i32, i32, i64, double, double, double, i32, i32, double, i32, i32, i32, i32, i32, i32, i32, i32, i32, i32, i32, i32, i32, i32, i32, i32, ptr, i64, i32, [6 x [4 x double]], i32, i64, ptr, i32, ptr, ptr, double, double, double, ptr, ptr, ptr, double, double, i32, i32, i64, ptr, i32, ptr, i32, i32, [13 x double], ptr, ptr, ptr, i32, ptr, i32 }

@.str = private unnamed_addr constant [115 x i8] c"generated/home/dtcxzyw/WorkSpace/Projects/compilers/llvm-opt-benchmark/bench/sundials/sundials/src/cvodes/cvodes.c\00", align 1
@.str.4 = private unnamed_addr constant [26 x i8] c"cvode_mem = NULL illegal.\00", align 1
@.str.29 = private unnamed_addr constant [69 x i8] c"Forward sensitivity analysis for quadrature variables not activated.\00", align 1
@.str.60 = private unnamed_addr constant [20 x i8] c"dky = NULL illegal.\00", align 1
@.str.61 = private unnamed_addr constant [21 x i8] c"Illegal value for k.\00", align 1
@.str.62 = private unnamed_addr constant [75 x i8] c"Illegal value for t.t = %lg is not between tcur - hu = %lg and tcur = %lg.\00", align 1
@.str.64 = private unnamed_addr constant [22 x i8] c"Illegal value for is.\00", align 1
@__func__.CVodeGetQuadSensDky1 = private unnamed_addr constant [21 x i8] c"CVodeGetQuadSensDky1\00", align 1

; Function Attrs: nounwind uwtable
define i32 @CVodeGetQuadSensDky1(ptr noundef %0, double noundef %1, i32 noundef %2, i32 noundef %3, ptr noundef %4) #0 {
  %6 = alloca i32, align 4
  %7 = alloca ptr, align 8
  %8 = alloca double, align 8
  %9 = alloca i32, align 4
  %10 = alloca i32, align 4
  %11 = alloca ptr, align 8
  %12 = alloca double, align 8
  %13 = alloca double, align 8
  %14 = alloca double, align 8
  %15 = alloca double, align 8
  %16 = alloca double, align 8
  %17 = alloca i32, align 4
  %18 = alloca i32, align 4
  %19 = alloca i32, align 4
  %20 = alloca i32, align 4
  %21 = alloca ptr, align 8
  %22 = alloca i32, align 4
  store ptr %0, ptr %7, align 8, !tbaa !153
  store double %1, ptr %8, align 8, !tbaa !150
  store i32 %2, ptr %9, align 4, !tbaa !3
  store i32 %3, ptr %10, align 4, !tbaa !3
  store ptr %4, ptr %11, align 8, !tbaa !151
  call void @llvm.lifetime.start.p0(i64 8, ptr %12) #10
  call void @llvm.lifetime.start.p0(i64 8, ptr %13) #10
  call void @llvm.lifetime.start.p0(i64 8, ptr %14) #10
  call void @llvm.lifetime.start.p0(i64 8, ptr %15) #10
  call void @llvm.lifetime.start.p0(i64 8, ptr %16) #10
  call void @llvm.lifetime.start.p0(i64 4, ptr %17) #10
  call void @llvm.lifetime.start.p0(i64 4, ptr %18) #10
  call void @llvm.lifetime.start.p0(i64 4, ptr %19) #10
  call void @llvm.lifetime.start.p0(i64 4, ptr %20) #10
  call void @llvm.lifetime.start.p0(i64 8, ptr %21) #10
  %23 = load ptr, ptr %7, align 8, !tbaa !153
  %24 = icmp eq ptr %23, null
  br i1 %24, label %25, label %26

25:                                               ; preds = %5
  call void (ptr, i32, i32, ptr, ptr, ptr, ...) @cvProcessError(ptr noundef null, i32 noundef -21, i32 noundef 4260, ptr noundef @__func__.CVodeGetQuadSensDky1, ptr noundef @.str, ptr noundef @.str.4)
  store i32 -21, ptr %6, align 4
  store i32 1, ptr %22, align 4
  br label %224

26:                                               ; preds = %5
  %27 = load ptr, ptr %7, align 8, !tbaa !153
  store ptr %27, ptr %21, align 8, !tbaa !10
  %28 = load ptr, ptr %21, align 8, !tbaa !10
  %29 = getelementptr inbounds nuw %struct.CVodeMemRec, ptr %28, i32 0, i32 41
  %30 = load i32, ptr %29, align 8, !tbaa !98
  %31 = icmp ne i32 %30, 1
  br i1 %31, label %32, label %34

32:                                               ; preds = %26
  %33 = load ptr, ptr %21, align 8, !tbaa !10
  call void (ptr, i32, i32, ptr, ptr, ptr, ...) @cvProcessError(ptr noundef %33, i32 noundef -50, i32 noundef 4269, ptr noundef @__func__.CVodeGetQuadSensDky1, ptr noundef @.str, ptr noundef @.str.29)
  store i32 -50, ptr %6, align 4
  store i32 1, ptr %22, align 4
  br label %224

34:                                               ; preds = %26
  %35 = load ptr, ptr %11, align 8, !tbaa !151
  %36 = icmp eq ptr %35, null
  br i1 %36, label %37, label %39

37:                                               ; preds = %34
  %38 = load ptr, ptr %21, align 8, !tbaa !10
  call void (ptr, i32, i32, ptr, ptr, ptr, ...) @cvProcessError(ptr noundef %38, i32 noundef -26, i32 noundef 4277, ptr noundef @__func__.CVodeGetQuadSensDky1, ptr noundef @.str, ptr noundef @.str.60)
  store i32 -26, ptr %6, align 4
  store i32 1, ptr %22, align 4
  br label %224

39:                                               ; preds = %34
  %40 = load i32, ptr %9, align 4, !tbaa !3
  %41 = icmp slt i32 %40, 0
  br i1 %41, label %48, label %42

42:                                               ; preds = %39
  %43 = load i32, ptr %9, align 4, !tbaa !3
  %44 = load ptr, ptr %21, align 8, !tbaa !10
  %45 = getelementptr inbounds nuw %struct.CVodeMemRec, ptr %44, i32 0, i32 82
  %46 = load i32, ptr %45, align 8, !tbaa !169
  %47 = icmp sgt i32 %43, %46
  br i1 %47, label %48, label %50

48:                                               ; preds = %42, %39
  %49 = load ptr, ptr %21, align 8, !tbaa !10
  call void (ptr, i32, i32, ptr, ptr, ptr, ...) @cvProcessError(ptr noundef %49, i32 noundef -24, i32 noundef 4285, ptr noundef @__func__.CVodeGetQuadSensDky1, ptr noundef @.str, ptr noundef @.str.61)
  store i32 -24, ptr %6, align 4
  store i32 1, ptr %22, align 4
  br label %224

50:                                               ; preds = %42
  %51 = load i32, ptr %10, align 4, !tbaa !3
  %52 = icmp slt i32 %51, 0
  br i1 %52, label %60, label %53

53:                                               ; preds = %50
  %54 = load i32, ptr %10, align 4, !tbaa !3
  %55 = load ptr, ptr %21, align 8, !tbaa !10
  %56 = getelementptr inbounds nuw %struct.CVodeMemRec, ptr %55, i32 0, i32 23
  %57 = load i32, ptr %56, align 8, !tbaa !230
  %58 = sub nsw i32 %57, 1
  %59 = icmp sgt i32 %54, %58
  br i1 %59, label %60, label %62

60:                                               ; preds = %53, %50
  %61 = load ptr, ptr %21, align 8, !tbaa !10
  call void (ptr, i32, i32, ptr, ptr, ptr, ...) @cvProcessError(ptr noundef %61, i32 noundef -45, i32 noundef 4292, ptr noundef @__func__.CVodeGetQuadSensDky1, ptr noundef @.str, ptr noundef @.str.64)
  store i32 -45, ptr %6, align 4
  store i32 1, ptr %22, align 4
  br label %224

62:                                               ; preds = %53
  %63 = load ptr, ptr %21, align 8, !tbaa !10
  %64 = getelementptr inbounds nuw %struct.CVodeMemRec, ptr %63, i32 0, i32 1
  %65 = load double, ptr %64, align 8, !tbaa !25
  %66 = fmul double 1.000000e+02, %65
  %67 = load ptr, ptr %21, align 8, !tbaa !10
  %68 = getelementptr inbounds nuw %struct.CVodeMemRec, ptr %67, i32 0, i32 93
  %69 = load double, ptr %68, align 8, !tbaa !167
  %70 = call double @llvm.fabs.f64(double %69)
  %71 = load ptr, ptr %21, align 8, !tbaa !10
  %72 = getelementptr inbounds nuw %struct.CVodeMemRec, ptr %71, i32 0, i32 196
  %73 = load double, ptr %72, align 8, !tbaa !174
  %74 = call double @llvm.fabs.f64(double %73)
  %75 = fadd double %70, %74
  %76 = fmul double %66, %75
  store double %76, ptr %14, align 8, !tbaa !150
  %77 = load ptr, ptr %21, align 8, !tbaa !10
  %78 = getelementptr inbounds nuw %struct.CVodeMemRec, ptr %77, i32 0, i32 196
  %79 = load double, ptr %78, align 8, !tbaa !174
  %80 = fcmp olt double %79, 0.000000e+00
  br i1 %80, label %81, label %84

81:                                               ; preds = %62
  %82 = load double, ptr %14, align 8, !tbaa !150
  %83 = fneg double %82
  store double %83, ptr %14, align 8, !tbaa !150
  br label %84

84:                                               ; preds = %81, %62
  %85 = load ptr, ptr %21, align 8, !tbaa !10
  %86 = getelementptr inbounds nuw %struct.CVodeMemRec, ptr %85, i32 0, i32 93
  %87 = load double, ptr %86, align 8, !tbaa !167
  %88 = load ptr, ptr %21, align 8, !tbaa !10
  %89 = getelementptr inbounds nuw %struct.CVodeMemRec, ptr %88, i32 0, i32 196
  %90 = load double, ptr %89, align 8, !tbaa !174
  %91 = fsub double %87, %90
  %92 = load double, ptr %14, align 8, !tbaa !150
  %93 = fsub double %91, %92
  store double %93, ptr %15, align 8, !tbaa !150
  %94 = load ptr, ptr %21, align 8, !tbaa !10
  %95 = getelementptr inbounds nuw %struct.CVodeMemRec, ptr %94, i32 0, i32 93
  %96 = load double, ptr %95, align 8, !tbaa !167
  %97 = load double, ptr %14, align 8, !tbaa !150
  %98 = fadd double %96, %97
  store double %98, ptr %16, align 8, !tbaa !150
  %99 = load double, ptr %8, align 8, !tbaa !150
  %100 = load double, ptr %15, align 8, !tbaa !150
  %101 = fsub double %99, %100
  %102 = load double, ptr %8, align 8, !tbaa !150
  %103 = load double, ptr %16, align 8, !tbaa !150
  %104 = fsub double %102, %103
  %105 = fmul double %101, %104
  %106 = fcmp ogt double %105, 0.000000e+00
  br i1 %106, label %107, label %109

107:                                              ; preds = %84
  %108 = load ptr, ptr %21, align 8, !tbaa !10
  call void (ptr, i32, i32, ptr, ptr, ptr, ...) @cvProcessError(ptr noundef %108, i32 noundef -25, i32 noundef 4305, ptr noundef @__func__.CVodeGetQuadSensDky1, ptr noundef @.str, ptr noundef @.str.62)
  store i32 -25, ptr %6, align 4
  store i32 1, ptr %22, align 4
  br label %224

109:                                              ; preds = %84
  store i32 0, ptr %19, align 4, !tbaa !3
  %110 = load double, ptr %8, align 8, !tbaa !150
  %111 = load ptr, ptr %21, align 8, !tbaa !10
  %112 = getelementptr inbounds nuw %struct.CVodeMemRec, ptr %111, i32 0, i32 93
  %113 = load double, ptr %112, align 8, !tbaa !167
  %114 = fsub double %110, %113
  %115 = load ptr, ptr %21, align 8, !tbaa !10
  %116 = getelementptr inbounds nuw %struct.CVodeMemRec, ptr %115, i32 0, i32 88
  %117 = load double, ptr %116, align 8, !tbaa !265
  %118 = fdiv double %114, %117
  store double %118, ptr %12, align 8, !tbaa !150
  %119 = load ptr, ptr %21, align 8, !tbaa !10
  %120 = getelementptr inbounds nuw %struct.CVodeMemRec, ptr %119, i32 0, i32 82
  %121 = load i32, ptr %120, align 8, !tbaa !169
  store i32 %121, ptr %18, align 4, !tbaa !3
  br label %122

122:                                              ; preds = %194, %109
  %123 = load i32, ptr %18, align 4, !tbaa !3
  %124 = load i32, ptr %9, align 4, !tbaa !3
  %125 = icmp sge i32 %123, %124
  br i1 %125, label %126, label %197

126:                                              ; preds = %122
  %127 = load ptr, ptr %21, align 8, !tbaa !10
  %128 = getelementptr inbounds nuw %struct.CVodeMemRec, ptr %127, i32 0, i32 244
  %129 = load ptr, ptr %128, align 8, !tbaa !164
  %130 = load i32, ptr %19, align 4, !tbaa !3
  %131 = sext i32 %130 to i64
  %132 = getelementptr inbounds double, ptr %129, i64 %131
  store double 1.000000e+00, ptr %132, align 8, !tbaa !150
  %133 = load i32, ptr %18, align 4, !tbaa !3
  store i32 %133, ptr %17, align 4, !tbaa !3
  br label %134

134:                                              ; preds = %152, %126
  %135 = load i32, ptr %17, align 4, !tbaa !3
  %136 = load i32, ptr %18, align 4, !tbaa !3
  %137 = load i32, ptr %9, align 4, !tbaa !3
  %138 = sub nsw i32 %136, %137
  %139 = add nsw i32 %138, 1
  %140 = icmp sge i32 %135, %139
  br i1 %140, label %141, label %155

141:                                              ; preds = %134
  %142 = load i32, ptr %17, align 4, !tbaa !3
  %143 = sitofp i32 %142 to double
  %144 = load ptr, ptr %21, align 8, !tbaa !10
  %145 = getelementptr inbounds nuw %struct.CVodeMemRec, ptr %144, i32 0, i32 244
  %146 = load ptr, ptr %145, align 8, !tbaa !164
  %147 = load i32, ptr %19, align 4, !tbaa !3
  %148 = sext i32 %147 to i64
  %149 = getelementptr inbounds double, ptr %146, i64 %148
  %150 = load double, ptr %149, align 8, !tbaa !150
  %151 = fmul double %150, %143
  store double %151, ptr %149, align 8, !tbaa !150
  br label %152

152:                                              ; preds = %141
  %153 = load i32, ptr %17, align 4, !tbaa !3
  %154 = add nsw i32 %153, -1
  store i32 %154, ptr %17, align 4, !tbaa !3
  br label %134

155:                                              ; preds = %134
  store i32 0, ptr %17, align 4, !tbaa !3
  br label %156

156:                                              ; preds = %172, %155
  %157 = load i32, ptr %17, align 4, !tbaa !3
  %158 = load i32, ptr %18, align 4, !tbaa !3
  %159 = load i32, ptr %9, align 4, !tbaa !3
  %160 = sub nsw i32 %158, %159
  %161 = icmp slt i32 %157, %160
  br i1 %161, label %162, label %175

162:                                              ; preds = %156
  %163 = load double, ptr %12, align 8, !tbaa !150
  %164 = load ptr, ptr %21, align 8, !tbaa !10
  %165 = getelementptr inbounds nuw %struct.CVodeMemRec, ptr %164, i32 0, i32 244
  %166 = load ptr, ptr %165, align 8, !tbaa !164
  %167 = load i32, ptr %19, align 4, !tbaa !3
  %168 = sext i32 %167 to i64
  %169 = getelementptr inbounds double, ptr %166, i64 %168
  %170 = load double, ptr %169, align 8, !tbaa !150
  %171 = fmul double %170, %163
  store double %171, ptr %169, align 8, !tbaa !150
  br label %172

172:                                              ; preds = %162
  %173 = load i32, ptr %17, align 4, !tbaa !3
  %174 = add nsw i32 %173, 1
  store i32 %174, ptr %17, align 4, !tbaa !3
  br label %156

175:                                              ; preds = %156
  %176 = load ptr, ptr %21, align 8, !tbaa !10
  %177 = getelementptr inbounds nuw %struct.CVodeMemRec, ptr %176, i32 0, i32 73
  %178 = load i32, ptr %18, align 4, !tbaa !3
  %179 = sext i32 %178 to i64
  %180 = getelementptr inbounds [13 x ptr], ptr %177, i64 0, i64 %179
  %181 = load ptr, ptr %180, align 8, !tbaa !152
  %182 = load i32, ptr %10, align 4, !tbaa !3
  %183 = sext i32 %182 to i64
  %184 = getelementptr inbounds ptr, ptr %181, i64 %183
  %185 = load ptr, ptr %184, align 8, !tbaa !151
  %186 = load ptr, ptr %21, align 8, !tbaa !10
  %187 = getelementptr inbounds nuw %struct.CVodeMemRec, ptr %186, i32 0, i32 245
  %188 = load ptr, ptr %187, align 8, !tbaa !165
  %189 = load i32, ptr %19, align 4, !tbaa !3
  %190 = sext i32 %189 to i64
  %191 = getelementptr inbounds ptr, ptr %188, i64 %190
  store ptr %185, ptr %191, align 8, !tbaa !151
  %192 = load i32, ptr %19, align 4, !tbaa !3
  %193 = add nsw i32 %192, 1
  store i32 %193, ptr %19, align 4, !tbaa !3
  br label %194

194:                                              ; preds = %175
  %195 = load i32, ptr %18, align 4, !tbaa !3
  %196 = add nsw i32 %195, -1
  store i32 %196, ptr %18, align 4, !tbaa !3
  br label %122

197:                                              ; preds = %122
  %198 = load i32, ptr %19, align 4, !tbaa !3
  %199 = load ptr, ptr %21, align 8, !tbaa !10
  %200 = getelementptr inbounds nuw %struct.CVodeMemRec, ptr %199, i32 0, i32 244
  %201 = load ptr, ptr %200, align 8, !tbaa !164
  %202 = load ptr, ptr %21, align 8, !tbaa !10
  %203 = getelementptr inbounds nuw %struct.CVodeMemRec, ptr %202, i32 0, i32 245
  %204 = load ptr, ptr %203, align 8, !tbaa !165
  %205 = load ptr, ptr %11, align 8, !tbaa !151
  %206 = call i32 @N_VLinearCombination(i32 noundef %198, ptr noundef %201, ptr noundef %204, ptr noundef %205)
  store i32 %206, ptr %20, align 4, !tbaa !3
  %207 = load i32, ptr %20, align 4, !tbaa !3
  %208 = icmp ne i32 %207, 0
  br i1 %208, label %209, label %210

209:                                              ; preds = %197
  store i32 -28, ptr %6, align 4
  store i32 1, ptr %22, align 4
  br label %224

210:                                              ; preds = %197
  %211 = load i32, ptr %9, align 4, !tbaa !3
  %212 = icmp eq i32 %211, 0
  br i1 %212, label %213, label %214

213:                                              ; preds = %210
  store i32 0, ptr %6, align 4
  store i32 1, ptr %22, align 4
  br label %224

214:                                              ; preds = %210
  %215 = load ptr, ptr %21, align 8, !tbaa !10
  %216 = getelementptr inbounds nuw %struct.CVodeMemRec, ptr %215, i32 0, i32 88
  %217 = load double, ptr %216, align 8, !tbaa !265
  %218 = load i32, ptr %9, align 4, !tbaa !3
  %219 = sub nsw i32 0, %218
  %220 = call double @SUNRpowerI(double noundef %217, i32 noundef %219)
  store double %220, ptr %13, align 8, !tbaa !150
  %221 = load double, ptr %13, align 8, !tbaa !150
  %222 = load ptr, ptr %11, align 8, !tbaa !151
  %223 = load ptr, ptr %11, align 8, !tbaa !151
  call void @N_VScale(double noundef %221, ptr noundef %222, ptr noundef %223)
  store i32 0, ptr %6, align 4
  store i32 1, ptr %22, align 4
  br label %224

224:                                              ; preds = %214, %213, %209, %107, %60, %48, %37, %32, %25
  call void @llvm.lifetime.end.p0(i64 8, ptr %21) #10
  call void @llvm.lifetime.end.p0(i64 4, ptr %20) #10
  call void @llvm.lifetime.end.p0(i64 4, ptr %19) #10
  call void @llvm.lifetime.end.p0(i64 4, ptr %18) #10
  call void @llvm.lifetime.end.p0(i64 4, ptr %17) #10
  call void @llvm.lifetime.end.p0(i64 8, ptr %16) #10
  call void @llvm.lifetime.end.p0(i64 8, ptr %15) #10
  call void @llvm.lifetime.end.p0(i64 8, ptr %14) #10
  call void @llvm.lifetime.end.p0(i64 8, ptr %13) #10
  call void @llvm.lifetime.end.p0(i64 8, ptr %12) #10
  %225 = load i32, ptr %6, align 4
  ret i32 %225
}